; Function Attrs: nounwind uwtable
define void @Ssw_ManCollectPis_rec(ptr noundef %0, ptr noundef captures(none) %1) local_unnamed_addr #2 {
  %3 = getelementptr inbounds nuw i8, ptr %0, i64 24
  %4 = load i64, ptr %3, align 8
  %5 = and i64 %4, 16
  %.not15 = icmp eq i64 %5, 0
  br i1 %.not15, label %.lr.ph, label %.loopexit

.lr.ph:                                           ; preds = %2, %tailrecurse
  %6 = phi i64 [ %51, %tailrecurse ], [ %4, %2 ]
  %7 = phi ptr [ %50, %tailrecurse ], [ %3, %2 ]
  %.tr16 = phi ptr [ %49, %tailrecurse ], [ %0, %2 ]
  %8 = or disjoint i64 %6, 16
  store i64 %8, ptr %7, align 8
  %9 = and i64 %6, 7
  %.not12 = icmp eq i64 %9, 2
  br i1 %.not12, label %10, label %tailrecurse

10:                                               ; preds = %.lr.ph
  %11 = getelementptr inbounds nuw i8, ptr %1, i64 4
  %12 = load i32, ptr %11, align 4, !tbaa !41
  %13 = load i32, ptr %1, align 8, !tbaa !42
  %14 = icmp eq i32 %12, %13
  br i1 %14, label %15, label %.Vec_PtrGrow.exit11_crit_edge.i

.Vec_PtrGrow.exit11_crit_edge.i:                  ; preds = %10
  %.phi.trans.insert.i = getelementptr inbounds nuw i8, ptr %1, i64 8
  %.pre.i = load ptr, ptr %.phi.trans.insert.i, align 8, !tbaa !31
  br label %Vec_PtrPush.exit

15:                                               ; preds = %10
  %16 = icmp slt i32 %12, 16
  br i1 %16, label %17, label %25

17:                                               ; preds = %15
  %18 = getelementptr inbounds nuw i8, ptr %1, i64 8
  %19 = load ptr, ptr %18, align 8, !tbaa !31
  %.not9.i.i = icmp eq ptr %19, null
  br i1 %.not9.i.i, label %22, label %20

20:                                               ; preds = %17
  %21 = tail call dereferenceable_or_null(128) ptr @realloc(ptr noundef nonnull %19, i64 noundef 128) #8
  br label %Vec_PtrGrow.exit.i

22:                                               ; preds = %17
  %23 = tail call noalias dereferenceable_or_null(128) ptr @malloc(i64 noundef 128) #9
  br label %Vec_PtrGrow.exit.i

Vec_PtrGrow.exit.i:                               ; preds = %22, %20
  %24 = phi ptr [ %21, %20 ], [ %23, %22 ]
  store ptr %24, ptr %18, align 8, !tbaa !31
  store i32 16, ptr %1, align 8, !tbaa !42
  br label %Vec_PtrPush.exit

25:                                               ; preds = %15
  %26 = shl nuw nsw i32 %12, 1
  %27 = getelementptr inbounds nuw i8, ptr %1, i64 8
  %28 = load ptr, ptr %27, align 8, !tbaa !31
  %.not9.i10.i = icmp eq ptr %28, null
  %29 = zext nneg i32 %26 to i64
  %30 = shl nuw nsw i64 %29, 3
  br i1 %.not9.i10.i, label %33, label %31

31:                                               ; preds = %25
  %32 = tail call ptr @realloc(ptr noundef nonnull %28, i64 noundef %30) #8
  br label %35

33:                                               ; preds = %25
  %34 = tail call noalias ptr @malloc(i64 noundef %30) #9
  br label %35

35:                                               ; preds = %33, %31
  %36 = phi ptr [ %32, %31 ], [ %34, %33 ]
  store ptr %36, ptr %27, align 8, !tbaa !31
  store i32 %26, ptr %1, align 8, !tbaa !42
  br label %Vec_PtrPush.exit

Vec_PtrPush.exit:                                 ; preds = %.Vec_PtrGrow.exit11_crit_edge.i, %Vec_PtrGrow.exit.i, %35
  %37 = phi ptr [ %.pre.i, %.Vec_PtrGrow.exit11_crit_edge.i ], [ %36, %35 ], [ %24, %Vec_PtrGrow.exit.i ]
  %38 = load i32, ptr %11, align 4, !tbaa !41
  %39 = add nsw i32 %38, 1
  store i32 %39, ptr %11, align 4, !tbaa !41
  %40 = sext i32 %38 to i64
  %41 = getelementptr inbounds ptr, ptr %37, i64 %40
  store ptr %.tr16, ptr %41, align 8, !tbaa !33
  br label %.loopexit

tailrecurse:                                      ; preds = %.lr.ph
  %42 = getelementptr i8, ptr %.tr16, i64 8
  %.val10 = load ptr, ptr %42, align 8, !tbaa !43
  %43 = ptrtoint ptr %.val10 to i64
  %44 = and i64 %43, -2
  %45 = inttoptr i64 %44 to ptr
  tail call void @Ssw_ManCollectPis_rec(ptr noundef %45, ptr noundef %1)
  %46 = getelementptr i8, ptr %.tr16, i64 16
  %.val11 = load ptr, ptr %46, align 8, !tbaa !44
  %47 = ptrtoint ptr %.val11 to i64
  %48 = and i64 %47, -2
  %49 = inttoptr i64 %48 to ptr
  %50 = getelementptr inbounds nuw i8, ptr %49, i64 24
  %51 = load i64, ptr %50, align 8
  %52 = and i64 %51, 16
  %.not = icmp eq i64 %52, 0
  br i1 %.not, label %.lr.ph, label %.loopexit

.loopexit:                                        ; preds = %tailrecurse, %2, %Vec_PtrPush.exit
  ret void
}